; Function Attrs: mustprogress uwtable
define void @_ZN3net12HpackEncoder21EmitNonIndexedLiteralERKSt4pairIN4base16BasicStringPieceINSt7__cxx1112basic_stringIcSt11char_traitsIcESaIcEEEEESA_E(ptr noundef nonnull align 8 dereferenceable(346) %0, ptr noundef nonnull readonly align 8 captures(none) dereferenceable(32) %1) local_unnamed_addr #0 align 2 {
  %3 = getelementptr inbounds nuw i8, ptr %0, i64 256
  tail call void @_ZN3net17HpackOutputStream12AppendPrefixENS_11HpackPrefixE(ptr noundef nonnull align 8 dereferenceable(40) %3, i8 0, i64 4)
  tail call void @_ZN3net17HpackOutputStream12AppendUint32Ej(ptr noundef nonnull align 8 dereferenceable(40) %3, i32 noundef 0)
  %.sroa.01.0.copyload = load ptr, ptr %1, align 8, !tbaa !72
  %.sroa.22.0..sroa_idx = getelementptr inbounds nuw i8, ptr %1, i64 8
  %.sroa.22.0.copyload = load i64, ptr %.sroa.22.0..sroa_idx, align 8, !tbaa !73
  tail call void @_ZN3net12HpackEncoder10EmitStringEN4base16BasicStringPieceINSt7__cxx1112basic_stringIcSt11char_traitsIcESaIcEEEEE(ptr noundef nonnull align 8 dereferenceable(346) %0, ptr %.sroa.01.0.copyload, i64 %.sroa.22.0.copyload)
  %4 = getelementptr inbounds nuw i8, ptr %1, i64 16
  %.sroa.0.0.copyload = load ptr, ptr %4, align 8, !tbaa !72
  %.sroa.2.0..sroa_idx = getelementptr inbounds nuw i8, ptr %1, i64 24
  %.sroa.2.0.copyload = load i64, ptr %.sroa.2.0..sroa_idx, align 8, !tbaa !73
  tail call void @_ZN3net12HpackEncoder10EmitStringEN4base16BasicStringPieceINSt7__cxx1112basic_stringIcSt11char_traitsIcESaIcEEEEE(ptr noundef nonnull align 8 dereferenceable(346) %0, ptr %.sroa.0.0.copyload, i64 %.sroa.2.0.copyload)
  ret void
}